target datalayout = "e-m:e-p270:32:32-p271:32:32-p272:64:64-i64:64-i128:128-f80:128-n8:16:32:64-S128"
target triple = "x86_64-pc-linux-gnu"

%struct.mbedtls_entropy_context = type { i32, %struct.mbedtls_sha256_context, i32, [20 x %struct.mbedtls_entropy_source_state] }
%struct.mbedtls_sha256_context = type { [2 x i32], [8 x i32], [64 x i8], i32 }
%struct.mbedtls_entropy_source_state = type { ptr, ptr, i64, i64, i32 }

; Function Attrs: mustprogress uwtable
define hidden void @mbedtls_entropy_free(ptr noundef %0) #0 {
  %2 = alloca ptr, align 8
  store ptr %0, ptr %2, align 8, !tbaa !3
  %3 = load ptr, ptr %2, align 8, !tbaa !3
  %4 = getelementptr inbounds nuw %struct.mbedtls_entropy_context, ptr %3, i32 0, i32 0
  %5 = load i32, ptr %4, align 8, !tbaa !12
  %6 = icmp eq i32 %5, -1
  br i1 %6, label %7, label %8

7:                                                ; preds = %1
  br label %18

8:                                                ; preds = %1
  %9 = load ptr, ptr %2, align 8, !tbaa !3
  %10 = getelementptr inbounds nuw %struct.mbedtls_entropy_context, ptr %9, i32 0, i32 1
  call void @mbedtls_sha256_free(ptr noundef %10)
  %11 = load ptr, ptr %2, align 8, !tbaa !3
  %12 = getelementptr inbounds nuw %struct.mbedtls_entropy_context, ptr %11, i32 0, i32 2
  store i32 0, ptr %12, align 8, !tbaa !8
  %13 = load ptr, ptr %2, align 8, !tbaa !3
  %14 = getelementptr inbounds nuw %struct.mbedtls_entropy_context, ptr %13, i32 0, i32 3
  %15 = getelementptr inbounds [20 x %struct.mbedtls_entropy_source_state], ptr %14, i64 0, i64 0
  call void @mbedtls_platform_zeroize(ptr noundef %15, i64 noundef 800)
  %16 = load ptr, ptr %2, align 8, !tbaa !3
  %17 = getelementptr inbounds nuw %struct.mbedtls_entropy_context, ptr %16, i32 0, i32 0
  store i32 -1, ptr %17, align 8, !tbaa !12
  br label %18

18:                                               ; preds = %8, %7
  ret void
}