; Function Attrs: mustprogress uwtable
define hidden void @mbedtls_entropy_free(ptr noundef %0) local_unnamed_addr #0 {
  %2 = load i32, ptr %0, align 8, !tbaa !9
  %3 = icmp eq i32 %2, -1
  br i1 %3, label %8, label %4

4:                                                ; preds = %1
  %5 = getelementptr inbounds nuw i8, ptr %0, i64 4
  tail call void @mbedtls_sha256_free(ptr noundef nonnull %5)
  %6 = getelementptr inbounds nuw i8, ptr %0, i64 112
  store i32 0, ptr %6, align 8, !tbaa !3
  %7 = getelementptr inbounds nuw i8, ptr %0, i64 120
  tail call void @mbedtls_platform_zeroize(ptr noundef nonnull %7, i64 noundef 800)
  store i32 -1, ptr %0, align 8, !tbaa !9
  br label %8

8:                                                ; preds = %1, %4
  ret void
}